; Function Attrs: mustprogress nofree norecurse nosync nounwind willreturn memory(read, inaccessiblemem: none) uwtable
define hidden noundef zeroext i1 @_ZN14PhaseIdealLoop23has_use_internal_to_setEP4NodeR9VectorSetP13IdealLoopTree(ptr nocapture noundef nonnull readnone align 8 dereferenceable(237) %0, ptr nocapture noundef readonly %1, ptr nocapture noundef nonnull readonly align 8 dereferenceable(32) %2, ptr nocapture noundef readonly %3) local_unnamed_addr #2 align 2 {
  %5 = getelementptr inbounds i8, ptr %3, i64 24
  %6 = load ptr, ptr %5, align 8
  %7 = getelementptr inbounds i8, ptr %1, i64 16
  %8 = load ptr, ptr %7, align 8
  %9 = getelementptr inbounds i8, ptr %1, i64 32
  %10 = load i32, ptr %9, align 8
  %11 = zext i32 %10 to i64
  %12 = getelementptr inbounds ptr, ptr %8, i64 %11
  %.not19 = icmp eq i32 %10, 0
  br i1 %.not19, label %._crit_edge, label %.lr.ph

.lr.ph:                                           ; preds = %4
  %13 = load i32, ptr %2, align 8
  %14 = getelementptr inbounds i8, ptr %2, i64 8
  %15 = load ptr, ptr %14, align 8
  br label %16

16:                                               ; preds = %.lr.ph, %_ZNK9VectorSet4testEj.exit.thread
  %.01214 = phi ptr [ %8, %.lr.ph ], [ %37, %_ZNK9VectorSet4testEj.exit.thread ]
  %17 = load ptr, ptr %.01214, align 8
  %18 = getelementptr inbounds i8, ptr %17, i64 40
  %19 = load i32, ptr %18, align 8
  %20 = lshr i32 %19, 5
  %.not.i = icmp ult i32 %20, %13
  br i1 %.not.i, label %_ZNK9VectorSet4testEj.exit, label %_ZNK9VectorSet4testEj.exit.thread

_ZNK9VectorSet4testEj.exit:                       ; preds = %16
  %21 = and i32 %19, 31
  %22 = shl nuw i32 1, %21
  %23 = zext nneg i32 %20 to i64
  %24 = getelementptr inbounds i32, ptr %15, i64 %23
  %25 = load i32, ptr %24, align 4
  %26 = and i32 %25, %22
  %.not = icmp eq i32 %26, 0
  br i1 %.not, label %_ZNK9VectorSet4testEj.exit.thread, label %27

27:                                               ; preds = %_ZNK9VectorSet4testEj.exit
  %28 = getelementptr inbounds i8, ptr %17, i64 44
  %29 = load i32, ptr %28, align 4
  %30 = and i32 %29, 15
  %31 = icmp eq i32 %30, 12
  br i1 %31, label %32, label %._crit_edge

32:                                               ; preds = %27
  %33 = getelementptr inbounds i8, ptr %17, i64 8
  %34 = load ptr, ptr %33, align 8
  %35 = load ptr, ptr %34, align 8
  %36 = icmp eq ptr %35, %6
  br i1 %36, label %_ZNK9VectorSet4testEj.exit.thread, label %._crit_edge

_ZNK9VectorSet4testEj.exit.thread:                ; preds = %16, %_ZNK9VectorSet4testEj.exit, %32
  %37 = getelementptr inbounds i8, ptr %.01214, i64 8
  %38 = icmp ult ptr %37, %12
  br i1 %38, label %16, label %._crit_edge, !llvm.loop !91

._crit_edge:                                      ; preds = %32, %27, %_ZNK9VectorSet4testEj.exit.thread, %4
  %.lcssa = phi i1 [ false, %4 ], [ false, %_ZNK9VectorSet4testEj.exit.thread ], [ true, %27 ], [ true, %32 ]
  ret i1 %.lcssa
}